target datalayout = "e-m:e-p270:32:32-p271:32:32-p272:64:64-i64:64-i128:128-f80:128-n8:16:32:64-S128"
target triple = "x86_64-unknown-linux-gnu"

%"struct.httplib::ClientImpl::Socket" = type { i32, ptr }

; Function Attrs: mustprogress uwtable
define noundef zeroext i1 @_ZN7httplib10ClientImpl25create_and_connect_socketERNS0_6SocketERNS_5ErrorE(ptr noundef nonnull align 8 dereferenceable(1000) %this, ptr noundef nonnull align 8 dereferenceable(16) %socket, ptr noundef nonnull align 4 dereferenceable(4) %error) unnamed_addr #6 align 2 {
entry:
  %retval = alloca i1, align 1
  %this.addr = alloca ptr, align 8
  %socket.addr = alloca ptr, align 8
  %error.addr = alloca ptr, align 8
  %sock = alloca i32, align 4
  store ptr %this, ptr %this.addr, align 8
  store ptr %socket, ptr %socket.addr, align 8
  store ptr %error, ptr %error.addr, align 8
  %this1 = load ptr, ptr %this.addr, align 8
  %0 = load ptr, ptr %error.addr, align 8
  %call = call noundef i32 @_ZNK7httplib10ClientImpl20create_client_socketERNS_5ErrorE(ptr noundef nonnull align 8 dereferenceable(1000) %this1, ptr noundef nonnull align 4 dereferenceable(4) %0)
  store i32 %call, ptr %sock, align 4
  %1 = load i32, ptr %sock, align 4
  %cmp = icmp eq i32 %1, -1
  br i1 %cmp, label %if.then, label %if.end

if.then:                                          ; preds = %entry
  store i1 false, ptr %retval, align 1
  br label %return

if.end:                                           ; preds = %entry
  %2 = load i32, ptr %sock, align 4
  %3 = load ptr, ptr %socket.addr, align 8
  %sock2 = getelementptr inbounds %"struct.httplib::ClientImpl::Socket", ptr %3, i32 0, i32 0
  store i32 %2, ptr %sock2, align 8
  store i1 true, ptr %retval, align 1
  br label %return

return:                                           ; preds = %if.end, %if.then
  %4 = load i1, ptr %retval, align 1
  ret i1 %4
}