; Function Attrs: mustprogress uwtable
define noundef zeroext i1 @_ZN7httplib10ClientImpl25create_and_connect_socketERNS0_6SocketERNS_5ErrorE(ptr noundef nonnull align 8 dereferenceable(1000) %this, ptr nocapture noundef nonnull writeonly align 8 dereferenceable(16) %socket, ptr noundef nonnull align 4 dereferenceable(4) %error) unnamed_addr #5 align 2 {
entry:
  %call = tail call noundef i32 @_ZNK7httplib10ClientImpl20create_client_socketERNS_5ErrorE(ptr noundef nonnull align 8 dereferenceable(1000) %this, ptr noundef nonnull align 4 dereferenceable(4) %error)
  %cmp = icmp ne i32 %call, -1
  br i1 %cmp, label %if.end, label %return

if.end:                                           ; preds = %entry
  store i32 %call, ptr %socket, align 8
  br label %return

return:                                           ; preds = %entry, %if.end
  ret i1 %cmp
}